target datalayout = "e-m:e-p270:32:32-p271:32:32-p272:64:64-i64:64-i128:128-f80:128-n8:16:32:64-S128"
target triple = "x86_64-pc-linux-gnu"

%class.ptr_vector.49 = type { %class.vector.50 }
%class.vector.50 = type { ptr }
%"class.datalog::relation_signature" = type { %"class.datalog::tr_infrastructure<datalog::relation_traits>::signature_base" }
%"class.datalog::tr_infrastructure<datalog::relation_traits>::signature_base" = type { %class.ptr_vector.49 }
%"class.datalog::tr_infrastructure<datalog::relation_traits>::base_ancestor" = type <{ ptr, ptr, %"class.datalog::relation_signature", i32, [4 x i8] }>

; Function Attrs: mustprogress nounwind uwtable
define linkonce_odr hidden noundef nonnull align 8 dereferenceable(36) ptr @_ZNK7datalog17tr_infrastructureINS_15relation_traitsEE13base_ancestor10get_pluginEv(ptr noundef nonnull align 8 dereferenceable(28) %0) #4 comdat align 2 {
  %2 = alloca ptr, align 8
  store ptr %0, ptr %2, align 8, !tbaa !447
  %3 = load ptr, ptr %2, align 8
  %4 = getelementptr inbounds nuw %"class.datalog::tr_infrastructure<datalog::relation_traits>::base_ancestor", ptr %3, i32 0, i32 1
  %5 = load ptr, ptr %4, align 8, !tbaa !449
  ret ptr %5
}

; Function Attrs: mustprogress uwtable
define hidden noundef ptr @_ZN7datalog16relation_manager11mk_union_fnERKNS_13relation_baseES3_PS2_(ptr noundef nonnull align 8 dereferenceable(200) %0, ptr noundef nonnull align 8 dereferenceable(28) %1, ptr noundef nonnull align 8 dereferenceable(28) %2, ptr noundef %3) #5 align 2 {
  %5 = alloca ptr, align 8
  %6 = alloca ptr, align 8
  %7 = alloca ptr, align 8
  %8 = alloca ptr, align 8
  %9 = alloca ptr, align 8
  store ptr %0, ptr %5, align 8, !tbaa !3
  store ptr %1, ptr %6, align 8, !tbaa !293
  store ptr %2, ptr %7, align 8, !tbaa !293
  store ptr %3, ptr %8, align 8, !tbaa !293
  call void @llvm.lifetime.start.p0(i64 8, ptr %9) #3
  %10 = load ptr, ptr %6, align 8, !tbaa !293
  %11 = call noundef nonnull align 8 dereferenceable(36) ptr @_ZNK7datalog17tr_infrastructureINS_15relation_traitsEE13base_ancestor10get_pluginEv(ptr noundef nonnull align 8 dereferenceable(28) %10)
  %12 = load ptr, ptr %6, align 8, !tbaa !293
  %13 = load ptr, ptr %7, align 8, !tbaa !293
  %14 = load ptr, ptr %8, align 8, !tbaa !293
  %15 = load ptr, ptr %11, align 8, !tbaa !8
  %16 = getelementptr inbounds ptr, ptr %15, i64 15
  %17 = load ptr, ptr %16, align 8
  %18 = call noundef ptr %17(ptr noundef nonnull align 8 dereferenceable(32) %11, ptr noundef nonnull align 8 dereferenceable(28) %12, ptr noundef nonnull align 8 dereferenceable(28) %13, ptr noundef %14)
  store ptr %18, ptr %9, align 8, !tbaa !476
  %19 = load ptr, ptr %9, align 8, !tbaa !476
  %20 = icmp ne ptr %19, null
  br i1 %20, label %37, label %21

21:                                               ; preds = %4
  %22 = load ptr, ptr %6, align 8, !tbaa !293
  %23 = call noundef nonnull align 8 dereferenceable(36) ptr @_ZNK7datalog17tr_infrastructureINS_15relation_traitsEE13base_ancestor10get_pluginEv(ptr noundef nonnull align 8 dereferenceable(28) %22)
  %24 = load ptr, ptr %7, align 8, !tbaa !293
  %25 = call noundef nonnull align 8 dereferenceable(36) ptr @_ZNK7datalog17tr_infrastructureINS_15relation_traitsEE13base_ancestor10get_pluginEv(ptr noundef nonnull align 8 dereferenceable(28) %24)
  %26 = icmp ne ptr %23, %25
  br i1 %26, label %27, label %37

27:                                               ; preds = %21
  %28 = load ptr, ptr %7, align 8, !tbaa !293
  %29 = call noundef nonnull align 8 dereferenceable(36) ptr @_ZNK7datalog17tr_infrastructureINS_15relation_traitsEE13base_ancestor10get_pluginEv(ptr noundef nonnull align 8 dereferenceable(28) %28)
  %30 = load ptr, ptr %6, align 8, !tbaa !293
  %31 = load ptr, ptr %7, align 8, !tbaa !293
  %32 = load ptr, ptr %8, align 8, !tbaa !293
  %33 = load ptr, ptr %29, align 8, !tbaa !8
  %34 = getelementptr inbounds ptr, ptr %33, i64 15
  %35 = load ptr, ptr %34, align 8
  %36 = call noundef ptr %35(ptr noundef nonnull align 8 dereferenceable(32) %29, ptr noundef nonnull align 8 dereferenceable(28) %30, ptr noundef nonnull align 8 dereferenceable(28) %31, ptr noundef %32)
  store ptr %36, ptr %9, align 8, !tbaa !476
  br label %37

37:                                               ; preds = %27, %21, %4
  %38 = load ptr, ptr %9, align 8, !tbaa !476
  %39 = icmp ne ptr %38, null
  br i1 %39, label %65, label %40

40:                                               ; preds = %37
  %41 = load ptr, ptr %8, align 8, !tbaa !293
  %42 = icmp ne ptr %41, null
  br i1 %42, label %43, label %65

43:                                               ; preds = %40
  %44 = load ptr, ptr %6, align 8, !tbaa !293
  %45 = call noundef nonnull align 8 dereferenceable(36) ptr @_ZNK7datalog17tr_infrastructureINS_15relation_traitsEE13base_ancestor10get_pluginEv(ptr noundef nonnull align 8 dereferenceable(28) %44)
  %46 = load ptr, ptr %8, align 8, !tbaa !293
  %47 = call noundef nonnull align 8 dereferenceable(36) ptr @_ZNK7datalog17tr_infrastructureINS_15relation_traitsEE13base_ancestor10get_pluginEv(ptr noundef nonnull align 8 dereferenceable(28) %46)
  %48 = icmp ne ptr %45, %47
  br i1 %48, label %49, label %65

49:                                               ; preds = %43
  %50 = load ptr, ptr %7, align 8, !tbaa !293
  %51 = call noundef nonnull align 8 dereferenceable(36) ptr @_ZNK7datalog17tr_infrastructureINS_15relation_traitsEE13base_ancestor10get_pluginEv(ptr noundef nonnull align 8 dereferenceable(28) %50)
  %52 = load ptr, ptr %8, align 8, !tbaa !293
  %53 = call noundef nonnull align 8 dereferenceable(36) ptr @_ZNK7datalog17tr_infrastructureINS_15relation_traitsEE13base_ancestor10get_pluginEv(ptr noundef nonnull align 8 dereferenceable(28) %52)
  %54 = icmp ne ptr %51, %53
  br i1 %54, label %55, label %65

55:                                               ; preds = %49
  %56 = load ptr, ptr %8, align 8, !tbaa !293
  %57 = call noundef nonnull align 8 dereferenceable(36) ptr @_ZNK7datalog17tr_infrastructureINS_15relation_traitsEE13base_ancestor10get_pluginEv(ptr noundef nonnull align 8 dereferenceable(28) %56)
  %58 = load ptr, ptr %6, align 8, !tbaa !293
  %59 = load ptr, ptr %7, align 8, !tbaa !293
  %60 = load ptr, ptr %8, align 8, !tbaa !293
  %61 = load ptr, ptr %57, align 8, !tbaa !8
  %62 = getelementptr inbounds ptr, ptr %61, i64 15
  %63 = load ptr, ptr %62, align 8
  %64 = call noundef ptr %63(ptr noundef nonnull align 8 dereferenceable(32) %57, ptr noundef nonnull align 8 dereferenceable(28) %58, ptr noundef nonnull align 8 dereferenceable(28) %59, ptr noundef %60)
  store ptr %64, ptr %9, align 8, !tbaa !476
  br label %65

65:                                               ; preds = %55, %49, %43, %40, %37
  %66 = load ptr, ptr %9, align 8, !tbaa !476
  call void @llvm.lifetime.end.p0(i64 8, ptr %9) #3
  ret ptr %66
}