; Function Attrs: mustprogress uwtable
define hidden noundef ptr @_ZN7datalog16relation_manager11mk_union_fnERKNS_13relation_baseES3_PS2_(ptr noundef nonnull readnone align 8 captures(none) dereferenceable(200) %0, ptr noundef nonnull align 8 dereferenceable(28) %1, ptr noundef nonnull align 8 dereferenceable(28) %2, ptr noundef %3) local_unnamed_addr #4 align 2 {
  %5 = getelementptr inbounds nuw i8, ptr %1, i64 8
  %6 = load ptr, ptr %5, align 8, !tbaa !426
  %7 = load ptr, ptr %6, align 8, !tbaa !3
  %8 = getelementptr inbounds nuw i8, ptr %7, i64 120
  %9 = load ptr, ptr %8, align 8
  %10 = tail call noundef ptr %9(ptr noundef nonnull align 8 dereferenceable(32) %6, ptr noundef nonnull align 8 dereferenceable(28) %1, ptr noundef nonnull align 8 dereferenceable(28) %2, ptr noundef %3)
  %.not = icmp eq ptr %10, null
  br i1 %.not, label %11, label %.thread

11:                                               ; preds = %4
  %12 = load ptr, ptr %5, align 8, !tbaa !426
  %13 = getelementptr inbounds nuw i8, ptr %2, i64 8
  %14 = load ptr, ptr %13, align 8, !tbaa !426
  %.not26 = icmp eq ptr %12, %14
  br i1 %.not26, label %20, label %15

15:                                               ; preds = %11
  %16 = load ptr, ptr %14, align 8, !tbaa !3
  %17 = getelementptr inbounds nuw i8, ptr %16, i64 120
  %18 = load ptr, ptr %17, align 8
  %19 = tail call noundef ptr %18(ptr noundef nonnull align 8 dereferenceable(32) %14, ptr noundef nonnull align 8 dereferenceable(28) %1, ptr noundef nonnull align 8 dereferenceable(28) %2, ptr noundef %3)
  br label %20

20:                                               ; preds = %15, %11
  %.0 = phi ptr [ %19, %15 ], [ null, %11 ]
  %21 = icmp eq ptr %.0, null
  %22 = icmp ne ptr %3, null
  %or.cond = and i1 %22, %21
  br i1 %or.cond, label %23, label %.thread

23:                                               ; preds = %20
  %24 = load ptr, ptr %5, align 8, !tbaa !426
  %25 = getelementptr inbounds nuw i8, ptr %3, i64 8
  %26 = load ptr, ptr %25, align 8, !tbaa !426
  %.not27 = icmp eq ptr %24, %26
  %27 = load ptr, ptr %13, align 8
  %.not28 = icmp eq ptr %27, %26
  %or.cond32 = select i1 %.not27, i1 true, i1 %.not28
  br i1 %or.cond32, label %.thread, label %28

28:                                               ; preds = %23
  %29 = load ptr, ptr %26, align 8, !tbaa !3
  %30 = getelementptr inbounds nuw i8, ptr %29, i64 120
  %31 = load ptr, ptr %30, align 8
  %32 = tail call noundef ptr %31(ptr noundef nonnull align 8 dereferenceable(32) %26, ptr noundef nonnull align 8 dereferenceable(28) %1, ptr noundef nonnull align 8 dereferenceable(28) %2, ptr noundef nonnull %3)
  br label %.thread

.thread:                                          ; preds = %4, %28, %23, %20
  %.1 = phi ptr [ %32, %28 ], [ null, %23 ], [ %.0, %20 ], [ %10, %4 ]
  ret ptr %.1
}